; Function Attrs: nounwind uwtable
define void @png_write_pHYs(ptr noalias noundef %0, i32 noundef %1, i32 noundef %2, i32 noundef %3) local_unnamed_addr #1 {
  %5 = alloca [9 x i8], align 1
  call void @llvm.lifetime.start.p0(i64 9, ptr nonnull %5) #12
  %6 = icmp sgt i32 %3, 1
  br i1 %6, label %7, label %8

7:                                                ; preds = %4
  tail call void @png_warning(ptr noundef %0, ptr noundef nonnull @.str.41) #12
  br label %8

8:                                                ; preds = %7, %4
  %9 = lshr i32 %1, 24
  %10 = trunc nuw i32 %9 to i8
  store i8 %10, ptr %5, align 1, !tbaa !3
  %11 = lshr i32 %1, 16
  %12 = trunc i32 %11 to i8
  %13 = getelementptr inbounds nuw i8, ptr %5, i64 1
  store i8 %12, ptr %13, align 1, !tbaa !3
  %14 = lshr i32 %1, 8
  %15 = trunc i32 %14 to i8
  %16 = getelementptr inbounds nuw i8, ptr %5, i64 2
  store i8 %15, ptr %16, align 1, !tbaa !3
  %17 = trunc i32 %1 to i8
  %18 = getelementptr inbounds nuw i8, ptr %5, i64 3
  store i8 %17, ptr %18, align 1, !tbaa !3
  %19 = getelementptr inbounds nuw i8, ptr %5, i64 4
  %20 = lshr i32 %2, 24
  %21 = trunc nuw i32 %20 to i8
  store i8 %21, ptr %19, align 1, !tbaa !3
  %22 = lshr i32 %2, 16
  %23 = trunc i32 %22 to i8
  %24 = getelementptr inbounds nuw i8, ptr %5, i64 5
  store i8 %23, ptr %24, align 1, !tbaa !3
  %25 = lshr i32 %2, 8
  %26 = trunc i32 %25 to i8
  %27 = getelementptr inbounds nuw i8, ptr %5, i64 6
  store i8 %26, ptr %27, align 1, !tbaa !3
  %28 = trunc i32 %2 to i8
  %29 = getelementptr inbounds nuw i8, ptr %5, i64 7
  store i8 %28, ptr %29, align 1, !tbaa !3
  %30 = trunc i32 %3 to i8
  %31 = getelementptr inbounds nuw i8, ptr %5, i64 8
  store i8 %30, ptr %31, align 1, !tbaa !3
  call fastcc void @png_write_complete_chunk(ptr noundef %0, i32 noundef 1883789683, ptr noundef nonnull %5, i64 noundef 9)
  call void @llvm.lifetime.end.p0(i64 9, ptr nonnull %5) #12
  ret void
}